Certificate:
    Data:
        Version: 3 (0x2)
        Serial Number: 4933 (0x1345)
        Signature Algorithm: md5WithRSAEncryption
        Issuer: CN=TheCA, OU=NOT FOR PRODUCTION, O=Apache, ST=NY, C=US
        Validity
            Not Before: May 25 06:08:24 2007 GMT
            Not After : May 23 06:08:24 2008 GMT
        Subject: C=US, ST=NY, O=Apache, OU=NOT FOR PRODUCTION, CN=TheRA
        Subject Public Key Info:
            Public Key Algorithm: rsaEncryption
            RSA Public Key: (1024 bit)
                Modulus (1024 bit):
                    00:b2:26:6e:01:98:18:a6:b2:8f:8b:05:2f:6e:cc:
                    00:78:41:e3:50:b0:8f:d1:b7:18:22:78:ba:29:b0:
                    b3:05:9c:0e:ef:89:ee:7f:0d:23:a4:11:3e:6f:ee:
                    f0:48:6d:1d:e4:0c:ec:9f:b4:e5:fb:16:18:4e:d1:
                    dc:ca:a2:ce:cc:78:b5:91:e2:d4:e6:8c:d2:c2:92:
                    31:bc:e9:6d:90:53:12:a9:34:ba:ce:c2:78:9a:97:
                    cf:43:15:76:ff:a2:09:8e:08:fc:38:3b:42:7f:82:
                    a7:d6:dc:9e:9d:2e:35:74:4d:83:df:57:7c:8b:51:
                    9e:4d:ca:4d:0e:d0:7d:40:d5
                Exponent: 65537 (0x10001)
        X509v3 extensions:
            X509v3 Basic Constraints: 
            CA:TRUE
    Signature Algorithm: md5WithRSAEncryption
        29:87:e0:b0:13:25:1b:0d:ea:74:aa:15:2f:9e:f4:16:f4:eb:
        c1:66:bd:14:ca:6c:46:92:22:61:14:b3:c5:f2:68:a5:00:8b:
        26:6d:a7:d6:fb:0b:e3:6c:b9:a8:35:86:58:1f:9e:13:3f:de:
        85:3d:19:04:1c:cb:dc:4e:44:20:9b:4c:46:3c:c4:4a:d6:d6:
        66:01:1c:6c:95:d0:16:d0:47:56:13:ff:37:9f:45:c6:d5:06:
        71:66:90:a4:e8:4b:01:6c:44:3b:8c:8b:df:f6:87:8b:05:47:
        ec:9b:3c:fe:4b:4e:41:a4:45:77:b2:f5:da:d8:09:08:dd:9e:
        bf:c0
-----BEGIN CERTIFICATE-----
MIICNzCCAaCgAwIBAgICE0UwDQYJKoZIhvcNAQEEBQAwWDEOMAwGA1UEAxMFVGhl
Q0ExGzAZBgNVBAsTEk5PVCBGT1IgUFJPRFVDVElPTjEPMA0GA1UEChMGQXBhY2hl
MQswCQYDVQQIEwJOWTELMAkGA1UEBhMCVVMwHhcNMDcwNTI1MDYwODI0WhcNMDgw
NTIzMDYwODI0WjBYMQswCQYDVQQGEwJVUzELMAkGA1UECBMCTlkxDzANBgNVBAoT
BkFwYWNoZTEbMBkGA1UECxMSTk9UIEZPUiBQUk9EVUNUSU9OMQ4wDAYDVQQDEwVU
aGVSQTCBnzANBgkqhkiG9w0BAQEFAAOBjQAwgYkCgYEAsiZuAZgYprKPiwUvbswA
eEHjULCP0bcYIni6KbCzBZwO74nufw0jpBE+b+7wSG0d5Azsn7Tl+xYYTtHcyqLO
zHi1keLU5ozSwpIxvOltkFMSqTS6zsJ4mpfPQxV2/6IJjgj8ODtCf4Kn1tyenS41
dE2D31d8i1GeTcpNDtB9QNUCAwEAAaMQMA4wDAYDVR0TBAUwAwEB/zANBgkqhkiG
9w0BAQQFAAOBgQAph+CwEyUbDep0qhUvnvQW9OvBZr0UymxGkiJhFLPF8milAIsm
bafW+wvjbLmoNYZYH54TP96FPRkEHMvcTkQgm0xGPMRK1tZmARxsldAW0EdWE/83
n0XG1QZxZpCk6EsBbEQ7jIvf9oeLBUfsmzz+S05BpEV3svXa2AkI3Z6/wA==
-----END CERTIFICATE-----
