Certificate:
    Data:
        Version: 3 (0x2)
        Serial Number: 4934 (0x1346)
        Signature Algorithm: md5WithRSAEncryption
        Issuer: C=US, ST=NY, O=Apache, OU=NOT FOR PRODUCTION, CN=TheRA
        Validity
            Not Before: May 25 06:08:25 2007 GMT
            Not After : May 23 06:08:25 2008 GMT
        Subject: C=US, ST=NY, O=Apache, OU=NOT FOR PRODUCTION, CN=Wibble
        Subject Public Key Info:
            Public Key Algorithm: dsaEncryption
            DSA Public Key:
                pub: 
                    34:aa:05:49:51:e7:f7:22:64:ac:24:fc:21:52:b5:
                    ae:2d:18:ac:5c:42:ce:f3:c1:a5:b8:82:b7:d8:17:
                    f6:5f:04:42:22:21:db:cd:12:ef:1f:56:37:42:ba:
                    e6:b7:0a:ae:ed:66:c1:e5:c8:f5:db:8d:86:9f:fe:
                    5c:a1:49:7c:5f:ab:3e:ea:32:43:3a:82:62:c8:96:
                    45:7d:b8:91:ee:5e:6a:3a:72:f8:40:b1:af:71:6e:
                    ba:34:3f:02:d5:41:53:53:f7:4c:84:42:34:5d:c8:
                    2a:d7:9e:7e:1d:0e:28:2e:5f:41:f5:a2:90:df:38:
                    2e:d0:85:7a:3e:b2:5a:39
                P:   
                    00:fd:7f:53:81:1d:75:12:29:52:df:4a:9c:2e:ec:
                    e4:e7:f6:11:b7:52:3c:ef:44:00:c3:1e:3f:80:b6:
                    51:26:69:45:5d:40:22:51:fb:59:3d:8d:58:fa:bf:
                    c5:f5:ba:30:f6:cb:9b:55:6c:d7:81:3b:80:1d:34:
                    6f:f2:66:60:b7:6b:99:50:a5:a4:9f:9f:e8:04:7b:
                    10:22:c2:4f:bb:a9:d7:fe:b7:c6:1b:f8:3b:57:e7:
                    c6:a8:a6:15:0f:04:fb:83:f6:d3:c5:1e:c3:02:35:
                    54:13:5a:16:91:32:f6:75:f3:ae:2b:61:d7:2a:ef:
                    f2:22:03:19:9d:d1:48:01:c7
                Q:   
                    00:97:60:50:8f:15:23:0b:cc:b2:92:b9:82:a2:eb:
                    84:0b:f0:58:1c:f5
                G:   
                    00:f7:e1:a0:85:d6:9b:3d:de:cb:bc:ab:5c:36:b8:
                    57:b9:79:94:af:bb:fa:3a:ea:82:f9:57:4c:0b:3d:
                    07:82:67:51:59:57:8e:ba:d4:59:4f:e6:71:07:10:
                    81:80:b4:49:16:71:23:e8:4c:28:16:13:b7:cf:09:
                    32:8c:c8:a6:e1:3c:16:7a:8b:54:7c:8d:28:e0:a3:
                    ae:1e:2b:b3:a6:75:91:6e:a3:7f:0b:fa:21:35:62:
                    f1:fb:62:7a:01:24:3b:cc:a4:f1:be:a8:51:90:89:
                    a8:83:df:e1:5a:e5:9f:06:92:8b:66:5e:80:7b:55:
                    25:64:01:4c:3b:fe:cf:49:2a
        X509v3 extensions:
            X509v3 Basic Constraints: 
            CA:FALSE
            Netscape Comment: 
            OpenSSL Generated Certificate
            X509v3 Subject Key Identifier: 
            1F:CC:F5:95:B6:FD:E4:B0:1C:88:B9:46:DD:5E:D8:E5:8A:42:6F:83
            X509v3 Authority Key Identifier: 
            DirName:/CN=TheCA/OU=NOT FOR PRODUCTION/O=Apache/ST=NY/C=US
            serial:13:45

    Signature Algorithm: md5WithRSAEncryption
        08:67:bb:df:d2:ac:4a:b2:0c:bf:06:e1:68:f5:94:29:a5:33:
        2b:01:d1:9f:04:75:26:82:44:9b:1b:3a:68:50:ab:c4:67:a0:
        93:fa:5b:e2:a4:98:97:50:0c:64:d6:ed:d5:9b:31:dc:b1:4b:
        07:c2:9c:eb:26:18:e3:29:2c:62:57:e8:ad:eb:3a:e9:d9:4c:
        4f:f0:d0:63:fe:f9:e4:9b:5d:a6:6b:09:cb:7a:80:2e:da:a9:
        3e:da:64:f6:70:4c:de:81:b8:de:94:6f:64:1b:4a:ee:b5:e5:
        b9:2e:51:7b:96:2b:c1:e3:cf:20:d9:1d:69:66:11:5c:eb:54:
        3a:ab
-----BEGIN CERTIFICATE-----
MIIECjCCA3OgAwIBAgICE0YwDQYJKoZIhvcNAQEEBQAwWDELMAkGA1UEBhMCVVMx
CzAJBgNVBAgTAk5ZMQ8wDQYDVQQKEwZBcGFjaGUxGzAZBgNVBAsTEk5PVCBGT1Ig
UFJPRFVDVElPTjEOMAwGA1UEAxMFVGhlUkEwHhcNMDcwNTI1MDYwODI1WhcNMDgw
NTIzMDYwODI1WjBZMQswCQYDVQQGEwJVUzELMAkGA1UECBMCTlkxDzANBgNVBAoT
BkFwYWNoZTEbMBkGA1UECxMSTk9UIEZPUiBQUk9EVUNUSU9OMQ8wDQYDVQQDEwZX
aWJibGUwggG3MIIBLAYHKoZIzjgEATCCAR8CgYEA/X9TgR11EilS30qcLuzk5/YR
t1I870QAwx4/gLZRJmlFXUAiUftZPY1Y+r/F9bow9subVWzXgTuAHTRv8mZgt2uZ
UKWkn5/oBHsQIsJPu6nX/rfGG/g7V+fGqKYVDwT7g/bTxR7DAjVUE1oWkTL2dfOu
K2HXKu/yIgMZndFIAccCFQCXYFCPFSMLzLKSuYKi64QL8Fgc9QKBgQD34aCF1ps9
3su8q1w2uFe5eZSvu/o66oL5V0wLPQeCZ1FZV4661FlP5nEHEIGAtEkWcSPoTCgW
E7fPCTKMyKbhPBZ6i1R8jSjgo64eK7OmdZFuo38L+iE1YvH7YnoBJDvMpPG+qFGQ
iaiD3+Fa5Z8GkotmXoB7VSVkAUw7/s9JKgOBhAACgYA0qgVJUef3ImSsJPwhUrWu
LRisXELO88GluIK32Bf2XwRCIiHbzRLvH1Y3Qrrmtwqu7WbB5cj1242Gn/5coUl8
X6s+6jJDOoJiyJZFfbiR7l5qOnL4QLGvcW66ND8C1UFTU/dMhEI0Xcgq155+HQ4o
Ll9B9aKQ3zgu0IV6PrJaOaOByDCBxTAJBgNVHRMEAjAAMCwGCWCGSAGG+EIBDQQf
Fh1PcGVuU1NMIEdlbmVyYXRlZCBDZXJ0aWZpY2F0ZTAdBgNVHQ4EFgQUH8z1lbb9
5LAciLlG3V7Y5YpCb4MwawYDVR0jBGQwYqFcpFowWDEOMAwGA1UEAxMFVGhlQ0Ex
GzAZBgNVBAsTEk5PVCBGT1IgUFJPRFVDVElPTjEPMA0GA1UEChMGQXBhY2hlMQsw
CQYDVQQIEwJOWTELMAkGA1UEBhMCVVOCAhNFMA0GCSqGSIb3DQEBBAUAA4GBAAhn
u9/SrEqyDL8G4Wj1lCmlMysB0Z8EdSaCRJsbOmhQq8RnoJP6W+KkmJdQDGTW7dWb
MdyxSwfCnOsmGOMpLGJX6K3rOunZTE/w0GP++eSbXaZrCct6gC7aqT7aZPZwTN6B
uN6Ub2QbSu615bkuUXuWK8HjzyDZHWlmEVzrVDqr
-----END CERTIFICATE-----
