Certificate:
    Data:
        Version: 3 (0x2)
        Serial Number: 4934 (0x1346)
        Signature Algorithm: sha1WithRSAEncryption
        Issuer: C=US, ST=NY, O=Apache, OU=NOT FOR PRODUCTION, CN=TheRA
        Validity
            Not Before: Jun 22 15:37:10 2009 GMT
            Not After : Jun 17 15:37:10 2029 GMT
        Subject: C=US, ST=NY, O=Apache, OU=NOT FOR PRODUCTION, CN=Wibble
        Subject Public Key Info:
            Public Key Algorithm: dsaEncryption
            DSA Public Key:
                pub: 
                    00:e5:70:fc:b4:96:58:cf:ed:e8:47:73:3c:42:a8:
                    f5:3f:e0:1c:c6:e4:9e:81:b0:91:fa:be:df:04:61:
                    84:73:ad:af:8e:5d:57:23:cb:6a:0a:c4:9a:42:a5:
                    94:71:68:08:26:5c:e5:1c:39:3d:25:de:4d:11:93:
                    d9:9c:2d:f5:80:cf:1f:f9:fd:ee:3b:bc:38:7f:0d:
                    22:8d:66:a3:2c:8b:ec:5d:22:1c:e9:54:0a:7a:c5:
                    bf:7a:24:d9:26:00:5a:75:71:5b:48:22:ca:31:96:
                    20:48:2d:9e:bc:4b:6f:51:e3:f3:86:e2:19:1c:7c:
                    20:80:e9:ff:f0:89:eb:ff:2a
                P:   
                    00:fd:7f:53:81:1d:75:12:29:52:df:4a:9c:2e:ec:
                    e4:e7:f6:11:b7:52:3c:ef:44:00:c3:1e:3f:80:b6:
                    51:26:69:45:5d:40:22:51:fb:59:3d:8d:58:fa:bf:
                    c5:f5:ba:30:f6:cb:9b:55:6c:d7:81:3b:80:1d:34:
                    6f:f2:66:60:b7:6b:99:50:a5:a4:9f:9f:e8:04:7b:
                    10:22:c2:4f:bb:a9:d7:fe:b7:c6:1b:f8:3b:57:e7:
                    c6:a8:a6:15:0f:04:fb:83:f6:d3:c5:1e:c3:02:35:
                    54:13:5a:16:91:32:f6:75:f3:ae:2b:61:d7:2a:ef:
                    f2:22:03:19:9d:d1:48:01:c7
                Q:   
                    00:97:60:50:8f:15:23:0b:cc:b2:92:b9:82:a2:eb:
                    84:0b:f0:58:1c:f5
                G:   
                    00:f7:e1:a0:85:d6:9b:3d:de:cb:bc:ab:5c:36:b8:
                    57:b9:79:94:af:bb:fa:3a:ea:82:f9:57:4c:0b:3d:
                    07:82:67:51:59:57:8e:ba:d4:59:4f:e6:71:07:10:
                    81:80:b4:49:16:71:23:e8:4c:28:16:13:b7:cf:09:
                    32:8c:c8:a6:e1:3c:16:7a:8b:54:7c:8d:28:e0:a3:
                    ae:1e:2b:b3:a6:75:91:6e:a3:7f:0b:fa:21:35:62:
                    f1:fb:62:7a:01:24:3b:cc:a4:f1:be:a8:51:90:89:
                    a8:83:df:e1:5a:e5:9f:06:92:8b:66:5e:80:7b:55:
                    25:64:01:4c:3b:fe:cf:49:2a
        X509v3 extensions:
            X509v3 Basic Constraints: 
                CA:FALSE
            Netscape Comment: 
                OpenSSL Generated Certificate
            X509v3 Subject Key Identifier: 
                91:4C:0A:EC:6C:E5:92:06:AE:3A:F8:96:32:EC:92:50:8C:CB:83:E7
            X509v3 Authority Key Identifier: 
                DirName:/CN=TheCA/OU=NOT FOR PRODUCTION/O=Apache/ST=NY/C=US
                serial:13:45

    Signature Algorithm: sha1WithRSAEncryption
        2e:14:ab:c9:48:9c:b5:b6:16:af:d2:59:3b:2c:bd:79:e9:f6:
        2c:e9:0b:ac:58:ab:82:e5:87:4a:6b:b4:ea:d4:d5:d8:5c:86:
        cf:96:33:ec:f1:c2:60:7d:6b:64:05:6f:8b:37:64:4d:71:f0:
        c6:75:82:f6:ba:8a:31:16:1e:5a:fa:93:35:ed:ee:a3:6f:98:
        e9:06:09:12:dd:e7:c0:df:9c:a1:9b:9e:db:3a:43:35:ac:c4:
        dd:e9:4d:6e:ba:88:b9:d5:c5:05:ea:7f:72:24:64:51:7c:b3:
        8d:24:bf:dd:9a:76:46:5a:c6:22:b4:bb:cd:c0:9c:96:3a:5c:
        6e:35
-----BEGIN CERTIFICATE-----
MIIECzCCA3SgAwIBAgICE0YwDQYJKoZIhvcNAQEFBQAwWDELMAkGA1UEBhMCVVMx
CzAJBgNVBAgTAk5ZMQ8wDQYDVQQKEwZBcGFjaGUxGzAZBgNVBAsTEk5PVCBGT1Ig
UFJPRFVDVElPTjEOMAwGA1UEAxMFVGhlUkEwHhcNMDkwNjIyMTUzNzEwWhcNMjkw
NjE3MTUzNzEwWjBZMQswCQYDVQQGEwJVUzELMAkGA1UECBMCTlkxDzANBgNVBAoT
BkFwYWNoZTEbMBkGA1UECxMSTk9UIEZPUiBQUk9EVUNUSU9OMQ8wDQYDVQQDEwZX
aWJibGUwggG4MIIBLAYHKoZIzjgEATCCAR8CgYEA/X9TgR11EilS30qcLuzk5/YR
t1I870QAwx4/gLZRJmlFXUAiUftZPY1Y+r/F9bow9subVWzXgTuAHTRv8mZgt2uZ
UKWkn5/oBHsQIsJPu6nX/rfGG/g7V+fGqKYVDwT7g/bTxR7DAjVUE1oWkTL2dfOu
K2HXKu/yIgMZndFIAccCFQCXYFCPFSMLzLKSuYKi64QL8Fgc9QKBgQD34aCF1ps9
3su8q1w2uFe5eZSvu/o66oL5V0wLPQeCZ1FZV4661FlP5nEHEIGAtEkWcSPoTCgW
E7fPCTKMyKbhPBZ6i1R8jSjgo64eK7OmdZFuo38L+iE1YvH7YnoBJDvMpPG+qFGQ
iaiD3+Fa5Z8GkotmXoB7VSVkAUw7/s9JKgOBhQACgYEA5XD8tJZYz+3oR3M8Qqj1
P+AcxuSegbCR+r7fBGGEc62vjl1XI8tqCsSaQqWUcWgIJlzlHDk9Jd5NEZPZnC31
gM8f+f3uO7w4fw0ijWajLIvsXSIc6VQKesW/eiTZJgBadXFbSCLKMZYgSC2evEtv
UePzhuIZHHwggOn/8Inr/yqjgcgwgcUwCQYDVR0TBAIwADAsBglghkgBhvhCAQ0E
HxYdT3BlblNTTCBHZW5lcmF0ZWQgQ2VydGlmaWNhdGUwHQYDVR0OBBYEFJFMCuxs
5ZIGrjr4ljLsklCMy4PnMGsGA1UdIwRkMGKhXKRaMFgxDjAMBgNVBAMTBVRoZUNB
MRswGQYDVQQLExJOT1QgRk9SIFBST0RVQ1RJT04xDzANBgNVBAoTBkFwYWNoZTEL
MAkGA1UECBMCTlkxCzAJBgNVBAYTAlVTggITRTANBgkqhkiG9w0BAQUFAAOBgQAu
FKvJSJy1thav0lk7LL156fYs6QusWKuC5YdKa7Tq1NXYXIbPljPs8cJgfWtkBW+L
N2RNcfDGdYL2uooxFh5a+pM17e6jb5jpBgkS3efA35yhm57bOkM1rMTd6U1uuoi5
1cUF6n9yJGRRfLONJL/dmnZGWsYitLvNwJyWOlxuNQ==
-----END CERTIFICATE-----
