Certificate:
    Data:
        Version: 3 (0x2)
        Serial Number: 4935 (0x1347)
        Signature Algorithm: md5WithRSAEncryption
        Issuer: C=US, ST=NY, O=Apache, OU=NOT FOR PRODUCTION, CN=TheRA
        Validity
            Not Before: May 25 06:08:25 2007 GMT
            Not After : May 23 06:08:25 2008 GMT
        Subject: C=US, ST=NY, O=Apache, OU=NOT FOR PRODUCTION, CN=Cherry
        Subject Public Key Info:
            Public Key Algorithm: dsaEncryption
            DSA Public Key:
                pub: 
                    75:35:a5:37:f6:a7:73:82:45:7f:f3:b7:8c:b5:b9:
                    32:28:17:fa:a1:d4:5d:a5:69:a0:30:9a:f6:8d:3c:
                    7f:eb:a0:cc:2c:1c:e7:7a:39:d1:1c:37:71:5b:13:
                    50:51:79:a6:9d:dd:6b:a8:fd:50:02:29:8b:ac:21:
                    70:cc:13:be:6e:83:95:bd:5c:1f:18:33:ee:8d:8b:
                    4a:50:56:a3:f4:95:f9:47:86:e4:35:23:e3:4c:61:
                    90:04:e6:1c:02:24:d0:b6:48:29:37:0b:d9:7b:11:
                    b1:81:a2:ca:e0:7a:60:8a:59:2b:dc:33:cf:ac:83:
                    0a:76:3d:dc:af:97:aa:7d
                P:   
                    00:fd:7f:53:81:1d:75:12:29:52:df:4a:9c:2e:ec:
                    e4:e7:f6:11:b7:52:3c:ef:44:00:c3:1e:3f:80:b6:
                    51:26:69:45:5d:40:22:51:fb:59:3d:8d:58:fa:bf:
                    c5:f5:ba:30:f6:cb:9b:55:6c:d7:81:3b:80:1d:34:
                    6f:f2:66:60:b7:6b:99:50:a5:a4:9f:9f:e8:04:7b:
                    10:22:c2:4f:bb:a9:d7:fe:b7:c6:1b:f8:3b:57:e7:
                    c6:a8:a6:15:0f:04:fb:83:f6:d3:c5:1e:c3:02:35:
                    54:13:5a:16:91:32:f6:75:f3:ae:2b:61:d7:2a:ef:
                    f2:22:03:19:9d:d1:48:01:c7
                Q:   
                    00:97:60:50:8f:15:23:0b:cc:b2:92:b9:82:a2:eb:
                    84:0b:f0:58:1c:f5
                G:   
                    00:f7:e1:a0:85:d6:9b:3d:de:cb:bc:ab:5c:36:b8:
                    57:b9:79:94:af:bb:fa:3a:ea:82:f9:57:4c:0b:3d:
                    07:82:67:51:59:57:8e:ba:d4:59:4f:e6:71:07:10:
                    81:80:b4:49:16:71:23:e8:4c:28:16:13:b7:cf:09:
                    32:8c:c8:a6:e1:3c:16:7a:8b:54:7c:8d:28:e0:a3:
                    ae:1e:2b:b3:a6:75:91:6e:a3:7f:0b:fa:21:35:62:
                    f1:fb:62:7a:01:24:3b:cc:a4:f1:be:a8:51:90:89:
                    a8:83:df:e1:5a:e5:9f:06:92:8b:66:5e:80:7b:55:
                    25:64:01:4c:3b:fe:cf:49:2a
        X509v3 extensions:
            X509v3 Basic Constraints: 
            CA:FALSE
            Netscape Comment: 
            OpenSSL Generated Certificate
            X509v3 Subject Key Identifier: 
            B2:F0:CA:05:22:E0:7F:9D:EE:59:01:AD:FA:45:5B:D2:1D:37:AE:92
            X509v3 Authority Key Identifier: 
            DirName:/CN=TheCA/OU=NOT FOR PRODUCTION/O=Apache/ST=NY/C=US
            serial:13:45

    Signature Algorithm: md5WithRSAEncryption
        7e:c3:d0:ba:3d:a9:83:3e:5c:41:e5:35:d9:bf:44:cc:f2:57:
        f8:30:d5:f7:60:ae:a6:8f:a6:ad:87:16:9e:58:ea:12:8e:2f:
        71:4f:1b:65:ef:a2:2c:28:9c:c6:4b:8f:b2:c7:2a:57:ed:ef:
        07:3c:f0:e9:d4:83:1e:b2:e9:7b:3f:e9:17:07:51:02:6f:49:
        03:1f:84:4f:f3:26:cb:e5:e0:94:8d:c7:f2:28:64:65:56:8b:
        65:15:2b:8e:1a:dc:99:a5:7f:0d:5c:dc:17:26:ea:2a:7f:9b:
        3d:44:6c:08:80:7b:c5:af:e2:ae:20:88:11:88:de:60:19:3d:
        57:fb
-----BEGIN CERTIFICATE-----
MIIECjCCA3OgAwIBAgICE0cwDQYJKoZIhvcNAQEEBQAwWDELMAkGA1UEBhMCVVMx
CzAJBgNVBAgTAk5ZMQ8wDQYDVQQKEwZBcGFjaGUxGzAZBgNVBAsTEk5PVCBGT1Ig
UFJPRFVDVElPTjEOMAwGA1UEAxMFVGhlUkEwHhcNMDcwNTI1MDYwODI1WhcNMDgw
NTIzMDYwODI1WjBZMQswCQYDVQQGEwJVUzELMAkGA1UECBMCTlkxDzANBgNVBAoT
BkFwYWNoZTEbMBkGA1UECxMSTk9UIEZPUiBQUk9EVUNUSU9OMQ8wDQYDVQQDEwZD
aGVycnkwggG3MIIBLAYHKoZIzjgEATCCAR8CgYEA/X9TgR11EilS30qcLuzk5/YR
t1I870QAwx4/gLZRJmlFXUAiUftZPY1Y+r/F9bow9subVWzXgTuAHTRv8mZgt2uZ
UKWkn5/oBHsQIsJPu6nX/rfGG/g7V+fGqKYVDwT7g/bTxR7DAjVUE1oWkTL2dfOu
K2HXKu/yIgMZndFIAccCFQCXYFCPFSMLzLKSuYKi64QL8Fgc9QKBgQD34aCF1ps9
3su8q1w2uFe5eZSvu/o66oL5V0wLPQeCZ1FZV4661FlP5nEHEIGAtEkWcSPoTCgW
E7fPCTKMyKbhPBZ6i1R8jSjgo64eK7OmdZFuo38L+iE1YvH7YnoBJDvMpPG+qFGQ
iaiD3+Fa5Z8GkotmXoB7VSVkAUw7/s9JKgOBhAACgYB1NaU39qdzgkV/87eMtbky
KBf6odRdpWmgMJr2jTx/66DMLBznejnRHDdxWxNQUXmmnd1rqP1QAimLrCFwzBO+
boOVvVwfGDPujYtKUFaj9JX5R4bkNSPjTGGQBOYcAiTQtkgpNwvZexGxgaLK4Hpg
ilkr3DPPrIMKdj3cr5eqfaOByDCBxTAJBgNVHRMEAjAAMCwGCWCGSAGG+EIBDQQf
Fh1PcGVuU1NMIEdlbmVyYXRlZCBDZXJ0aWZpY2F0ZTAdBgNVHQ4EFgQUsvDKBSLg
f53uWQGt+kVb0h03rpIwawYDVR0jBGQwYqFcpFowWDEOMAwGA1UEAxMFVGhlQ0Ex
GzAZBgNVBAsTEk5PVCBGT1IgUFJPRFVDVElPTjEPMA0GA1UEChMGQXBhY2hlMQsw
CQYDVQQIEwJOWTELMAkGA1UEBhMCVVOCAhNFMA0GCSqGSIb3DQEBBAUAA4GBAH7D
0Lo9qYM+XEHlNdm/RMzyV/gw1fdgrqaPpq2HFp5Y6hKOL3FPG2XvoiwonMZLj7LH
Klft7wc88OnUgx6y6Xs/6RcHUQJvSQMfhE/zJsvl4JSNx/IoZGVWi2UVK44a3Jml
fw1c3Bcm6ip/mz1EbAiAe8Wv4q4giBGI3mAZPVf7
-----END CERTIFICATE-----
