Certificate:
    Data:
        Version: 3 (0x2)
        Serial Number: 4933 (0x1345)
        Signature Algorithm: sha1WithRSAEncryption
        Issuer: CN=TheCA, OU=NOT FOR PRODUCTION, O=Apache, ST=NY, C=US
        Validity
            Not Before: Jun 22 15:37:08 2009 GMT
            Not After : Jun 17 15:37:08 2029 GMT
        Subject: C=US, ST=NY, O=Apache, OU=NOT FOR PRODUCTION, CN=TheRA
        Subject Public Key Info:
            Public Key Algorithm: rsaEncryption
            RSA Public Key: (1024 bit)
                Modulus (1024 bit):
                    00:ad:4b:0a:92:ca:87:b1:b7:7b:35:cc:5a:a7:0b:
                    ea:8b:c1:40:57:e1:1a:e9:9c:1f:6e:21:6c:e3:a6:
                    57:0d:c5:44:9e:fc:1b:15:60:7c:3e:46:2b:ab:5b:
                    c4:24:6a:c1:08:b2:92:f9:03:69:62:1d:d0:1b:4e:
                    9e:b6:6d:80:7e:b5:30:20:63:89:90:98:06:39:b4:
                    3d:94:5c:87:05:b8:36:ee:19:9c:b7:ec:18:ca:6c:
                    74:67:72:06:7b:ac:35:c0:3e:44:90:ae:e7:cc:5d:
                    18:83:43:e1:db:17:dd:ac:76:aa:34:46:d5:2f:e4:
                    5e:9a:a6:80:05:c3:5b:96:d7
                Exponent: 65537 (0x10001)
        X509v3 extensions:
            X509v3 Basic Constraints: 
                CA:TRUE
    Signature Algorithm: sha1WithRSAEncryption
        b5:e2:f3:7b:6b:76:db:7e:6a:91:da:60:16:0d:f4:b9:cf:6f:
        a7:3b:48:ba:33:fc:f7:63:bb:c0:55:9a:b2:06:e8:87:71:4c:
        d6:45:8c:84:e2:42:b3:32:bc:43:1c:11:12:df:3c:13:39:79:
        96:dc:d4:9b:c0:c3:0a:77:ad:51:45:21:74:5b:67:11:e0:c1:
        78:d9:eb:45:a1:45:2b:d3:f3:63:47:02:16:83:d2:18:37:6c:
        06:07:02:98:3e:b4:82:51:2c:02:18:c8:71:84:e1:1a:a2:ab:
        c0:7a:0d:2c:77:5b:f9:39:ec:ee:66:30:86:43:d5:11:da:6c:
        8c:bc
-----BEGIN CERTIFICATE-----
MIICNzCCAaCgAwIBAgICE0UwDQYJKoZIhvcNAQEFBQAwWDEOMAwGA1UEAxMFVGhl
Q0ExGzAZBgNVBAsTEk5PVCBGT1IgUFJPRFVDVElPTjEPMA0GA1UEChMGQXBhY2hl
MQswCQYDVQQIEwJOWTELMAkGA1UEBhMCVVMwHhcNMDkwNjIyMTUzNzA4WhcNMjkw
NjE3MTUzNzA4WjBYMQswCQYDVQQGEwJVUzELMAkGA1UECBMCTlkxDzANBgNVBAoT
BkFwYWNoZTEbMBkGA1UECxMSTk9UIEZPUiBQUk9EVUNUSU9OMQ4wDAYDVQQDEwVU
aGVSQTCBnzANBgkqhkiG9w0BAQEFAAOBjQAwgYkCgYEArUsKksqHsbd7Ncxapwvq
i8FAV+Ea6ZwfbiFs46ZXDcVEnvwbFWB8PkYrq1vEJGrBCLKS+QNpYh3QG06etm2A
frUwIGOJkJgGObQ9lFyHBbg27hmct+wYymx0Z3IGe6w1wD5EkK7nzF0Yg0Ph2xfd
rHaqNEbVL+RemqaABcNbltcCAwEAAaMQMA4wDAYDVR0TBAUwAwEB/zANBgkqhkiG
9w0BAQUFAAOBgQC14vN7a3bbfmqR2mAWDfS5z2+nO0i6M/z3Y7vAVZqyBuiHcUzW
RYyE4kKzMrxDHBES3zwTOXmW3NSbwMMKd61RRSF0W2cR4MF42etFoUUr0/NjRwIW
g9IYN2wGBwKYPrSCUSwCGMhxhOEaoqvAeg0sd1v5OezuZjCGQ9UR2myMvA==
-----END CERTIFICATE-----
