Certificate:
    Data:
        Version: 3 (0x2)
        Serial Number: 4935 (0x1347)
        Signature Algorithm: sha1WithRSAEncryption
        Issuer: C=US, ST=NY, O=Apache, OU=NOT FOR PRODUCTION, CN=TheRA
        Validity
            Not Before: Jun 22 15:37:10 2009 GMT
            Not After : Jun 17 15:37:10 2029 GMT
        Subject: C=US, ST=NY, O=Apache, OU=NOT FOR PRODUCTION, CN=Cherry
        Subject Public Key Info:
            Public Key Algorithm: dsaEncryption
            DSA Public Key:
                pub: 
                    62:ed:60:d3:e6:27:e8:2a:bf:ba:09:83:4c:e1:b8:
                    29:6e:81:88:0d:c9:b8:80:0c:ef:37:ce:eb:88:04:
                    44:b2:9c:04:d5:ef:e7:ef:6e:3c:ca:ed:c7:51:23:
                    b5:d4:87:8e:f4:da:f2:df:20:0d:83:6c:94:f7:7e:
                    3b:f1:92:98:88:c3:b8:56:c7:f7:a2:d2:b7:1d:7f:
                    91:55:11:7b:7a:5d:a1:70:8c:62:76:90:b0:0e:7e:
                    fe:05:1c:1a:60:45:49:f8:52:02:b7:32:49:8a:be:
                    ef:f6:45:66:fa:b7:3e:86:48:e5:94:30:ef:4b:df:
                    4b:bf:a3:8e:89:e8:c1:3a
                P:   
                    00:fd:7f:53:81:1d:75:12:29:52:df:4a:9c:2e:ec:
                    e4:e7:f6:11:b7:52:3c:ef:44:00:c3:1e:3f:80:b6:
                    51:26:69:45:5d:40:22:51:fb:59:3d:8d:58:fa:bf:
                    c5:f5:ba:30:f6:cb:9b:55:6c:d7:81:3b:80:1d:34:
                    6f:f2:66:60:b7:6b:99:50:a5:a4:9f:9f:e8:04:7b:
                    10:22:c2:4f:bb:a9:d7:fe:b7:c6:1b:f8:3b:57:e7:
                    c6:a8:a6:15:0f:04:fb:83:f6:d3:c5:1e:c3:02:35:
                    54:13:5a:16:91:32:f6:75:f3:ae:2b:61:d7:2a:ef:
                    f2:22:03:19:9d:d1:48:01:c7
                Q:   
                    00:97:60:50:8f:15:23:0b:cc:b2:92:b9:82:a2:eb:
                    84:0b:f0:58:1c:f5
                G:   
                    00:f7:e1:a0:85:d6:9b:3d:de:cb:bc:ab:5c:36:b8:
                    57:b9:79:94:af:bb:fa:3a:ea:82:f9:57:4c:0b:3d:
                    07:82:67:51:59:57:8e:ba:d4:59:4f:e6:71:07:10:
                    81:80:b4:49:16:71:23:e8:4c:28:16:13:b7:cf:09:
                    32:8c:c8:a6:e1:3c:16:7a:8b:54:7c:8d:28:e0:a3:
                    ae:1e:2b:b3:a6:75:91:6e:a3:7f:0b:fa:21:35:62:
                    f1:fb:62:7a:01:24:3b:cc:a4:f1:be:a8:51:90:89:
                    a8:83:df:e1:5a:e5:9f:06:92:8b:66:5e:80:7b:55:
                    25:64:01:4c:3b:fe:cf:49:2a
        X509v3 extensions:
            X509v3 Basic Constraints: 
                CA:FALSE
            Netscape Comment: 
                OpenSSL Generated Certificate
            X509v3 Subject Key Identifier: 
                EF:91:8D:9A:A9:B0:D5:8D:15:3A:C5:E3:6F:79:53:C3:0F:0C:E0:8E
            X509v3 Authority Key Identifier: 
                DirName:/CN=TheCA/OU=NOT FOR PRODUCTION/O=Apache/ST=NY/C=US
                serial:13:45

    Signature Algorithm: sha1WithRSAEncryption
        4c:83:05:41:5e:3c:a4:47:b5:39:56:21:6f:15:1f:58:13:7d:
        69:bc:bc:b0:ce:37:14:bc:5e:c9:3e:ad:c5:d3:1b:53:d9:0a:
        75:65:81:80:46:44:f9:a6:c5:60:29:0c:92:53:6e:6a:78:03:
        b6:67:40:bf:e3:08:ff:2b:40:21:65:a9:10:86:10:71:4e:ab:
        1c:ea:43:2d:47:ee:49:49:e8:da:f3:86:0c:e9:aa:a2:30:7e:
        48:e4:ed:40:56:6d:a3:11:95:71:2f:ca:7b:d4:0b:48:74:26:
        27:94:76:6e:aa:1c:06:91:b9:2b:39:65:0b:f9:fa:c9:dd:5b:
        f8:37
-----BEGIN CERTIFICATE-----
MIIECjCCA3OgAwIBAgICE0cwDQYJKoZIhvcNAQEFBQAwWDELMAkGA1UEBhMCVVMx
CzAJBgNVBAgTAk5ZMQ8wDQYDVQQKEwZBcGFjaGUxGzAZBgNVBAsTEk5PVCBGT1Ig
UFJPRFVDVElPTjEOMAwGA1UEAxMFVGhlUkEwHhcNMDkwNjIyMTUzNzEwWhcNMjkw
NjE3MTUzNzEwWjBZMQswCQYDVQQGEwJVUzELMAkGA1UECBMCTlkxDzANBgNVBAoT
BkFwYWNoZTEbMBkGA1UECxMSTk9UIEZPUiBQUk9EVUNUSU9OMQ8wDQYDVQQDEwZD
aGVycnkwggG3MIIBLAYHKoZIzjgEATCCAR8CgYEA/X9TgR11EilS30qcLuzk5/YR
t1I870QAwx4/gLZRJmlFXUAiUftZPY1Y+r/F9bow9subVWzXgTuAHTRv8mZgt2uZ
UKWkn5/oBHsQIsJPu6nX/rfGG/g7V+fGqKYVDwT7g/bTxR7DAjVUE1oWkTL2dfOu
K2HXKu/yIgMZndFIAccCFQCXYFCPFSMLzLKSuYKi64QL8Fgc9QKBgQD34aCF1ps9
3su8q1w2uFe5eZSvu/o66oL5V0wLPQeCZ1FZV4661FlP5nEHEIGAtEkWcSPoTCgW
E7fPCTKMyKbhPBZ6i1R8jSjgo64eK7OmdZFuo38L+iE1YvH7YnoBJDvMpPG+qFGQ
iaiD3+Fa5Z8GkotmXoB7VSVkAUw7/s9JKgOBhAACgYBi7WDT5ifoKr+6CYNM4bgp
boGIDcm4gAzvN87riAREspwE1e/n7248yu3HUSO11IeO9Nry3yANg2yU93478ZKY
iMO4Vsf3otK3HX+RVRF7el2hcIxidpCwDn7+BRwaYEVJ+FICtzJJir7v9kVm+rc+
hkjllDDvS99Lv6OOiejBOqOByDCBxTAJBgNVHRMEAjAAMCwGCWCGSAGG+EIBDQQf
Fh1PcGVuU1NMIEdlbmVyYXRlZCBDZXJ0aWZpY2F0ZTAdBgNVHQ4EFgQU75GNmqmw
1Y0VOsXjb3lTww8M4I4wawYDVR0jBGQwYqFcpFowWDEOMAwGA1UEAxMFVGhlQ0Ex
GzAZBgNVBAsTEk5PVCBGT1IgUFJPRFVDVElPTjEPMA0GA1UEChMGQXBhY2hlMQsw
CQYDVQQIEwJOWTELMAkGA1UEBhMCVVOCAhNFMA0GCSqGSIb3DQEBBQUAA4GBAEyD
BUFePKRHtTlWIW8VH1gTfWm8vLDONxS8Xsk+rcXTG1PZCnVlgYBGRPmmxWApDJJT
bmp4A7ZnQL/jCP8rQCFlqRCGEHFOqxzqQy1H7klJ6NrzhgzpqqIwfkjk7UBWbaMR
lXEvynvUC0h0JieUdm6qHAaRuSs5ZQv5+sndW/g3
-----END CERTIFICATE-----
