Certificate:
    Data:
        Version: 3 (0x2)
        Serial Number: 4933 (0x1345)
        Signature Algorithm: sha1WithRSAEncryption
        Issuer: CN=TheCA, OU=NOT FOR PRODUCTION, O=Apache, ST=NY, C=US
        Validity
            Not Before: Jun 22 15:39:42 2009 GMT
            Not After : Jun 17 15:39:42 2029 GMT
        Subject: C=US, ST=NY, O=Apache, OU=NOT FOR PRODUCTION, CN=TheRA
        Subject Public Key Info:
            Public Key Algorithm: rsaEncryption
            RSA Public Key: (1024 bit)
                Modulus (1024 bit):
                    00:dd:80:f0:8b:44:38:64:18:10:40:ac:70:b7:24:
                    ab:97:41:b9:71:69:6d:97:38:5f:fb:91:be:4d:69:
                    a8:47:c4:00:6c:9a:28:8b:94:f2:90:cf:64:3e:49:
                    f7:86:a4:94:a6:55:f8:b8:a0:c4:ca:f8:5f:2a:68:
                    e5:af:f9:d3:89:7d:09:3d:d5:65:27:ca:60:b1:81:
                    05:f1:18:46:a3:57:49:0e:2e:6d:91:8d:76:1a:4f:
                    51:18:1f:c1:18:c0:37:6a:2f:a8:63:41:7a:10:cb:
                    82:52:d0:df:61:12:b1:a4:b5:ae:1a:bf:4f:ba:b7:
                    c7:96:f5:81:85:ff:0a:fb:cb
                Exponent: 65537 (0x10001)
        X509v3 extensions:
            X509v3 Basic Constraints: 
                CA:TRUE
    Signature Algorithm: sha1WithRSAEncryption
        53:4e:6b:86:04:f0:e9:d8:1c:64:e3:3b:3f:e3:24:a6:6e:2d:
        36:01:a3:b4:33:84:ef:29:4c:90:7a:e5:b7:8c:50:d6:4d:c1:
        e8:61:cb:bf:ab:e8:5f:f2:b9:f3:6b:9c:7c:40:1a:e0:05:e8:
        a2:c1:39:7d:0d:99:07:a9:8d:d8:88:ed:6c:73:a8:23:28:6b:
        3d:d5:f4:15:29:0f:ec:db:6c:e2:8f:c6:54:65:d1:e9:d8:3f:
        4b:7c:47:7b:d0:24:21:0d:af:c2:ac:7f:5f:c7:ef:45:45:e1:
        ba:29:83:3f:c8:18:9f:c5:38:83:71:f8:f5:37:16:15:ac:70:
        c8:a6
-----BEGIN CERTIFICATE-----
MIICNzCCAaCgAwIBAgICE0UwDQYJKoZIhvcNAQEFBQAwWDEOMAwGA1UEAxMFVGhl
Q0ExGzAZBgNVBAsTEk5PVCBGT1IgUFJPRFVDVElPTjEPMA0GA1UEChMGQXBhY2hl
MQswCQYDVQQIEwJOWTELMAkGA1UEBhMCVVMwHhcNMDkwNjIyMTUzOTQyWhcNMjkw
NjE3MTUzOTQyWjBYMQswCQYDVQQGEwJVUzELMAkGA1UECBMCTlkxDzANBgNVBAoT
BkFwYWNoZTEbMBkGA1UECxMSTk9UIEZPUiBQUk9EVUNUSU9OMQ4wDAYDVQQDEwVU
aGVSQTCBnzANBgkqhkiG9w0BAQEFAAOBjQAwgYkCgYEA3YDwi0Q4ZBgQQKxwtySr
l0G5cWltlzhf+5G+TWmoR8QAbJooi5TykM9kPkn3hqSUplX4uKDEyvhfKmjlr/nT
iX0JPdVlJ8pgsYEF8RhGo1dJDi5tkY12Gk9RGB/BGMA3ai+oY0F6EMuCUtDfYRKx
pLWuGr9PurfHlvWBhf8K+8sCAwEAAaMQMA4wDAYDVR0TBAUwAwEB/zANBgkqhkiG
9w0BAQUFAAOBgQBTTmuGBPDp2Bxk4zs/4ySmbi02AaO0M4TvKUyQeuW3jFDWTcHo
Ycu/q+hf8rnza5x8QBrgBeiiwTl9DZkHqY3YiO1sc6gjKGs91fQVKQ/s22zij8ZU
ZdHp2D9LfEd70CQhDa/CrH9fx+9FReG6KYM/yBifxTiDcfj1NxYVrHDIpg==
-----END CERTIFICATE-----
