Certificate:
    Data:
        Version: 3 (0x2)
        Serial Number: 4933 (0x1345)
        Signature Algorithm: md5WithRSAEncryption
        Issuer: CN=TheCA, OU=NOT FOR PRODUCTION, O=Apache, ST=NY, C=US
        Validity
            Not Before: May 26 01:59:24 2008 GMT
            Not After : May 25 01:59:24 2009 GMT
        Subject: C=US, ST=NY, O=Apache, OU=NOT FOR PRODUCTION, CN=TheRA
        Subject Public Key Info:
            Public Key Algorithm: rsaEncryption
            RSA Public Key: (1024 bit)
                Modulus (1024 bit):
                    00:a3:04:36:5d:93:df:49:c4:4e:0b:ac:5c:f4:aa:
                    34:52:16:c6:81:81:94:64:57:b0:7d:23:e2:db:5a:
                    65:7a:3a:d6:09:97:40:25:8c:75:52:53:f6:fc:21:
                    e6:dc:60:cc:48:47:1a:35:4e:20:4b:0b:09:00:9d:
                    97:45:95:6a:a1:75:e6:47:e5:8d:e1:cb:cf:78:bd:
                    66:0f:68:b9:1d:d8:a1:d5:09:a4:85:54:87:e8:ca:
                    bc:a2:7b:28:fb:56:14:72:2c:bf:af:e4:d3:8f:2f:
                    ba:fc:9d:b6:cd:f4:8a:38:06:e0:15:d3:57:98:4a:
                    68:55:f9:41:49:4c:18:47:ab
                Exponent: 65537 (0x10001)
        X509v3 extensions:
            X509v3 Basic Constraints: 
            CA:TRUE
    Signature Algorithm: md5WithRSAEncryption
        30:b4:c5:4a:5b:72:90:12:04:f7:1b:16:b1:6a:df:dc:d2:50:
        bc:8d:18:b0:15:4a:63:15:80:26:dc:e8:8f:f8:41:a3:7f:6b:
        54:6f:23:31:b0:f2:3f:d1:ec:08:44:16:c3:5f:13:83:2e:a4:
        cd:49:04:f4:c7:0d:4f:e3:c1:c6:ab:85:21:a6:80:64:bd:b6:
        7c:95:f8:ff:a1:2d:48:2e:d6:1f:77:05:3a:9d:01:31:f9:7c:
        52:8d:eb:bf:7b:80:c6:24:30:7f:3e:36:cf:cd:9f:b8:b0:81:
        de:0d:ea:ae:e5:55:3f:f3:7c:6f:02:f7:a4:7d:58:2b:76:65:
        23:bf
-----BEGIN CERTIFICATE-----
MIICNzCCAaCgAwIBAgICE0UwDQYJKoZIhvcNAQEEBQAwWDEOMAwGA1UEAxMFVGhl
Q0ExGzAZBgNVBAsTEk5PVCBGT1IgUFJPRFVDVElPTjEPMA0GA1UEChMGQXBhY2hl
MQswCQYDVQQIEwJOWTELMAkGA1UEBhMCVVMwHhcNMDgwNTI2MDE1OTI0WhcNMDkw
NTI1MDE1OTI0WjBYMQswCQYDVQQGEwJVUzELMAkGA1UECBMCTlkxDzANBgNVBAoT
BkFwYWNoZTEbMBkGA1UECxMSTk9UIEZPUiBQUk9EVUNUSU9OMQ4wDAYDVQQDEwVU
aGVSQTCBnzANBgkqhkiG9w0BAQEFAAOBjQAwgYkCgYEAowQ2XZPfScROC6xc9Ko0
UhbGgYGUZFewfSPi21plejrWCZdAJYx1UlP2/CHm3GDMSEcaNU4gSwsJAJ2XRZVq
oXXmR+WN4cvPeL1mD2i5Hdih1QmkhVSH6Mq8onso+1YUciy/r+TTjy+6/J22zfSK
OAbgFdNXmEpoVflBSUwYR6sCAwEAAaMQMA4wDAYDVR0TBAUwAwEB/zANBgkqhkiG
9w0BAQQFAAOBgQAwtMVKW3KQEgT3Gxaxat/c0lC8jRiwFUpjFYAm3OiP+EGjf2tU
byMxsPI/0ewIRBbDXxODLqTNSQT0xw1P48HGq4UhpoBkvbZ8lfj/oS1ILtYfdwU6
nQEx+XxSjeu/e4DGJDB/PjbPzZ+4sIHeDequ5VU/83xvAvekfVgrdmUjvw==
-----END CERTIFICATE-----
