Certificate:
    Data:
        Version: 3 (0x2)
        Serial Number: 4934 (0x1346)
        Signature Algorithm: md5WithRSAEncryption
        Issuer: C=US, ST=NY, O=Apache, OU=NOT FOR PRODUCTION, CN=TheRA
        Validity
            Not Before: May 26 01:59:26 2008 GMT
            Not After : May 25 01:59:26 2009 GMT
        Subject: C=US, ST=NY, O=Apache, OU=NOT FOR PRODUCTION, CN=Wibble
        Subject Public Key Info:
            Public Key Algorithm: dsaEncryption
            DSA Public Key:
                pub: 
                    4d:83:5a:95:c5:75:d0:c5:65:68:67:7f:7d:cc:b4:
                    67:f6:93:8a:fa:7d:7a:72:bb:d1:bf:00:ca:d5:12:
                    f2:8a:65:67:76:db:2c:e6:89:f5:fc:ed:1e:75:fa:
                    31:1b:de:46:ec:a1:b3:a7:b3:2a:66:86:02:61:96:
                    7d:a8:3f:d4:bc:87:cb:5e:0f:b7:c5:67:c3:8f:37:
                    c7:5d:8f:46:2b:69:8d:16:cb:aa:20:74:ae:99:d0:
                    4b:19:03:c2:a5:a3:ac:58:a1:f2:65:be:06:a5:e4:
                    9e:84:5e:e4:4a:86:49:0a:08:9c:bd:94:f6:20:cf:
                    26:1a:2a:86:f7:e1:91:95
                P:   
                    00:fd:7f:53:81:1d:75:12:29:52:df:4a:9c:2e:ec:
                    e4:e7:f6:11:b7:52:3c:ef:44:00:c3:1e:3f:80:b6:
                    51:26:69:45:5d:40:22:51:fb:59:3d:8d:58:fa:bf:
                    c5:f5:ba:30:f6:cb:9b:55:6c:d7:81:3b:80:1d:34:
                    6f:f2:66:60:b7:6b:99:50:a5:a4:9f:9f:e8:04:7b:
                    10:22:c2:4f:bb:a9:d7:fe:b7:c6:1b:f8:3b:57:e7:
                    c6:a8:a6:15:0f:04:fb:83:f6:d3:c5:1e:c3:02:35:
                    54:13:5a:16:91:32:f6:75:f3:ae:2b:61:d7:2a:ef:
                    f2:22:03:19:9d:d1:48:01:c7
                Q:   
                    00:97:60:50:8f:15:23:0b:cc:b2:92:b9:82:a2:eb:
                    84:0b:f0:58:1c:f5
                G:   
                    00:f7:e1:a0:85:d6:9b:3d:de:cb:bc:ab:5c:36:b8:
                    57:b9:79:94:af:bb:fa:3a:ea:82:f9:57:4c:0b:3d:
                    07:82:67:51:59:57:8e:ba:d4:59:4f:e6:71:07:10:
                    81:80:b4:49:16:71:23:e8:4c:28:16:13:b7:cf:09:
                    32:8c:c8:a6:e1:3c:16:7a:8b:54:7c:8d:28:e0:a3:
                    ae:1e:2b:b3:a6:75:91:6e:a3:7f:0b:fa:21:35:62:
                    f1:fb:62:7a:01:24:3b:cc:a4:f1:be:a8:51:90:89:
                    a8:83:df:e1:5a:e5:9f:06:92:8b:66:5e:80:7b:55:
                    25:64:01:4c:3b:fe:cf:49:2a
        X509v3 extensions:
            X509v3 Basic Constraints: 
            CA:FALSE
            Netscape Comment: 
            OpenSSL Generated Certificate
            X509v3 Subject Key Identifier: 
            BF:B2:0A:A0:04:DF:CE:02:8A:BA:36:70:06:FC:AD:6F:2D:2E:5F:3F
            X509v3 Authority Key Identifier: 
            DirName:/CN=TheCA/OU=NOT FOR PRODUCTION/O=Apache/ST=NY/C=US
            serial:13:45

    Signature Algorithm: md5WithRSAEncryption
        31:c7:c6:5f:cd:bf:72:5e:84:2e:82:0d:43:e0:57:1c:15:e7:
        56:57:fb:d2:0e:34:34:f6:c9:69:32:01:50:0f:d2:0a:de:53:
        84:7a:66:91:1c:d7:c0:a5:8e:21:73:16:48:62:8e:ea:8e:d5:
        f0:7c:80:3c:a0:48:cc:29:10:32:b0:84:e6:5e:3c:d6:bd:91:
        29:05:f2:45:a3:f4:89:3b:22:99:cf:b3:74:64:01:8f:f7:1e:
        68:75:b3:38:f5:de:30:b7:04:b9:21:7b:51:39:92:42:61:23:
        e2:a6:98:a8:eb:17:be:0d:42:26:d9:95:29:ff:dc:5a:e5:60:
        8c:2c
-----BEGIN CERTIFICATE-----
MIIECjCCA3OgAwIBAgICE0YwDQYJKoZIhvcNAQEEBQAwWDELMAkGA1UEBhMCVVMx
CzAJBgNVBAgTAk5ZMQ8wDQYDVQQKEwZBcGFjaGUxGzAZBgNVBAsTEk5PVCBGT1Ig
UFJPRFVDVElPTjEOMAwGA1UEAxMFVGhlUkEwHhcNMDgwNTI2MDE1OTI2WhcNMDkw
NTI1MDE1OTI2WjBZMQswCQYDVQQGEwJVUzELMAkGA1UECBMCTlkxDzANBgNVBAoT
BkFwYWNoZTEbMBkGA1UECxMSTk9UIEZPUiBQUk9EVUNUSU9OMQ8wDQYDVQQDEwZX
aWJibGUwggG3MIIBLAYHKoZIzjgEATCCAR8CgYEA/X9TgR11EilS30qcLuzk5/YR
t1I870QAwx4/gLZRJmlFXUAiUftZPY1Y+r/F9bow9subVWzXgTuAHTRv8mZgt2uZ
UKWkn5/oBHsQIsJPu6nX/rfGG/g7V+fGqKYVDwT7g/bTxR7DAjVUE1oWkTL2dfOu
K2HXKu/yIgMZndFIAccCFQCXYFCPFSMLzLKSuYKi64QL8Fgc9QKBgQD34aCF1ps9
3su8q1w2uFe5eZSvu/o66oL5V0wLPQeCZ1FZV4661FlP5nEHEIGAtEkWcSPoTCgW
E7fPCTKMyKbhPBZ6i1R8jSjgo64eK7OmdZFuo38L+iE1YvH7YnoBJDvMpPG+qFGQ
iaiD3+Fa5Z8GkotmXoB7VSVkAUw7/s9JKgOBhAACgYBNg1qVxXXQxWVoZ399zLRn
9pOK+n16crvRvwDK1RLyimVndtss5on1/O0edfoxG95G7KGzp7MqZoYCYZZ9qD/U
vIfLXg+3xWfDjzfHXY9GK2mNFsuqIHSumdBLGQPCpaOsWKHyZb4GpeSehF7kSoZJ
CgicvZT2IM8mGiqG9+GRlaOByDCBxTAJBgNVHRMEAjAAMCwGCWCGSAGG+EIBDQQf
Fh1PcGVuU1NMIEdlbmVyYXRlZCBDZXJ0aWZpY2F0ZTAdBgNVHQ4EFgQUv7IKoATf
zgKKujZwBvytby0uXz8wawYDVR0jBGQwYqFcpFowWDEOMAwGA1UEAxMFVGhlQ0Ex
GzAZBgNVBAsTEk5PVCBGT1IgUFJPRFVDVElPTjEPMA0GA1UEChMGQXBhY2hlMQsw
CQYDVQQIEwJOWTELMAkGA1UEBhMCVVOCAhNFMA0GCSqGSIb3DQEBBAUAA4GBADHH
xl/Nv3JehC6CDUPgVxwV51ZX+9IONDT2yWkyAVAP0greU4R6ZpEc18CljiFzFkhi
juqO1fB8gDygSMwpEDKwhOZePNa9kSkF8kWj9Ik7IpnPs3RkAY/3Hmh1szj13jC3
BLkhe1E5kkJhI+KmmKjrF74NQibZlSn/3FrlYIws
-----END CERTIFICATE-----
