Certificate:
    Data:
        Version: 3 (0x2)
        Serial Number: 4934 (0x1346)
        Signature Algorithm: sha1WithRSAEncryption
        Issuer: C=US, ST=NY, O=Apache, OU=NOT FOR PRODUCTION, CN=TheRA
        Validity
            Not Before: Jun 22 15:39:43 2009 GMT
            Not After : Jun 17 15:39:43 2029 GMT
        Subject: C=US, ST=NY, O=Apache, OU=NOT FOR PRODUCTION, CN=Wibble
        Subject Public Key Info:
            Public Key Algorithm: dsaEncryption
            DSA Public Key:
                pub: 
                    00:ca:da:ea:2c:25:78:4c:cb:99:09:03:a2:22:93:
                    01:5a:44:8a:51:16:0e:b5:5b:63:5c:3f:33:50:5e:
                    05:87:4d:09:f7:b0:1c:37:f1:86:2d:60:9c:38:ff:
                    b5:72:8a:f0:2e:11:be:89:9e:a0:50:a3:41:00:9d:
                    7a:d5:63:5e:2e:26:63:eb:0e:af:44:d4:56:2a:6b:
                    6a:11:e7:28:8e:00:3e:74:25:bb:87:a6:5b:32:14:
                    24:a7:9b:63:b5:db:2b:9e:e0:e4:4b:30:7f:4b:1a:
                    b6:98:9e:af:ef:ee:cc:43:65:53:34:d8:1b:31:8e:
                    94:3d:1b:9e:e4:09:d5:18:ba
                P:   
                    00:fd:7f:53:81:1d:75:12:29:52:df:4a:9c:2e:ec:
                    e4:e7:f6:11:b7:52:3c:ef:44:00:c3:1e:3f:80:b6:
                    51:26:69:45:5d:40:22:51:fb:59:3d:8d:58:fa:bf:
                    c5:f5:ba:30:f6:cb:9b:55:6c:d7:81:3b:80:1d:34:
                    6f:f2:66:60:b7:6b:99:50:a5:a4:9f:9f:e8:04:7b:
                    10:22:c2:4f:bb:a9:d7:fe:b7:c6:1b:f8:3b:57:e7:
                    c6:a8:a6:15:0f:04:fb:83:f6:d3:c5:1e:c3:02:35:
                    54:13:5a:16:91:32:f6:75:f3:ae:2b:61:d7:2a:ef:
                    f2:22:03:19:9d:d1:48:01:c7
                Q:   
                    00:97:60:50:8f:15:23:0b:cc:b2:92:b9:82:a2:eb:
                    84:0b:f0:58:1c:f5
                G:   
                    00:f7:e1:a0:85:d6:9b:3d:de:cb:bc:ab:5c:36:b8:
                    57:b9:79:94:af:bb:fa:3a:ea:82:f9:57:4c:0b:3d:
                    07:82:67:51:59:57:8e:ba:d4:59:4f:e6:71:07:10:
                    81:80:b4:49:16:71:23:e8:4c:28:16:13:b7:cf:09:
                    32:8c:c8:a6:e1:3c:16:7a:8b:54:7c:8d:28:e0:a3:
                    ae:1e:2b:b3:a6:75:91:6e:a3:7f:0b:fa:21:35:62:
                    f1:fb:62:7a:01:24:3b:cc:a4:f1:be:a8:51:90:89:
                    a8:83:df:e1:5a:e5:9f:06:92:8b:66:5e:80:7b:55:
                    25:64:01:4c:3b:fe:cf:49:2a
        X509v3 extensions:
            X509v3 Basic Constraints: 
                CA:FALSE
            Netscape Comment: 
                OpenSSL Generated Certificate
            X509v3 Subject Key Identifier: 
                46:04:0E:35:BA:AA:21:7B:99:D8:DE:FB:88:29:38:15:75:B2:17:B3
            X509v3 Authority Key Identifier: 
                DirName:/CN=TheCA/OU=NOT FOR PRODUCTION/O=Apache/ST=NY/C=US
                serial:13:45

    Signature Algorithm: sha1WithRSAEncryption
        35:08:15:36:84:c5:c4:91:90:08:84:62:2d:21:66:ae:d0:5b:
        e1:4c:71:86:cb:b4:99:0c:5c:70:d3:47:b5:24:68:f1:92:ab:
        3e:0b:05:90:0c:15:9a:2d:77:17:1c:7a:f9:1c:3e:76:19:e2:
        4c:d6:7c:3d:af:e4:b8:5d:16:eb:a1:ab:d0:7e:cb:eb:ae:c4:
        1c:bf:f8:76:00:d3:9e:04:85:53:f8:a1:5b:af:80:2e:79:84:
        f9:99:54:d2:29:a8:86:f0:0c:51:02:65:cb:1f:f6:3c:b1:39:
        20:ec:1d:8a:7e:ba:d9:c9:ad:06:51:74:94:ad:68:84:bc:2c:
        20:cd
-----BEGIN CERTIFICATE-----
MIIECzCCA3SgAwIBAgICE0YwDQYJKoZIhvcNAQEFBQAwWDELMAkGA1UEBhMCVVMx
CzAJBgNVBAgTAk5ZMQ8wDQYDVQQKEwZBcGFjaGUxGzAZBgNVBAsTEk5PVCBGT1Ig
UFJPRFVDVElPTjEOMAwGA1UEAxMFVGhlUkEwHhcNMDkwNjIyMTUzOTQzWhcNMjkw
NjE3MTUzOTQzWjBZMQswCQYDVQQGEwJVUzELMAkGA1UECBMCTlkxDzANBgNVBAoT
BkFwYWNoZTEbMBkGA1UECxMSTk9UIEZPUiBQUk9EVUNUSU9OMQ8wDQYDVQQDEwZX
aWJibGUwggG4MIIBLAYHKoZIzjgEATCCAR8CgYEA/X9TgR11EilS30qcLuzk5/YR
t1I870QAwx4/gLZRJmlFXUAiUftZPY1Y+r/F9bow9subVWzXgTuAHTRv8mZgt2uZ
UKWkn5/oBHsQIsJPu6nX/rfGG/g7V+fGqKYVDwT7g/bTxR7DAjVUE1oWkTL2dfOu
K2HXKu/yIgMZndFIAccCFQCXYFCPFSMLzLKSuYKi64QL8Fgc9QKBgQD34aCF1ps9
3su8q1w2uFe5eZSvu/o66oL5V0wLPQeCZ1FZV4661FlP5nEHEIGAtEkWcSPoTCgW
E7fPCTKMyKbhPBZ6i1R8jSjgo64eK7OmdZFuo38L+iE1YvH7YnoBJDvMpPG+qFGQ
iaiD3+Fa5Z8GkotmXoB7VSVkAUw7/s9JKgOBhQACgYEAytrqLCV4TMuZCQOiIpMB
WkSKURYOtVtjXD8zUF4Fh00J97AcN/GGLWCcOP+1corwLhG+iZ6gUKNBAJ161WNe
LiZj6w6vRNRWKmtqEecojgA+dCW7h6ZbMhQkp5tjtdsrnuDkSzB/Sxq2mJ6v7+7M
Q2VTNNgbMY6UPRue5AnVGLqjgcgwgcUwCQYDVR0TBAIwADAsBglghkgBhvhCAQ0E
HxYdT3BlblNTTCBHZW5lcmF0ZWQgQ2VydGlmaWNhdGUwHQYDVR0OBBYEFEYEDjW6
qiF7mdje+4gpOBV1shezMGsGA1UdIwRkMGKhXKRaMFgxDjAMBgNVBAMTBVRoZUNB
MRswGQYDVQQLExJOT1QgRk9SIFBST0RVQ1RJT04xDzANBgNVBAoTBkFwYWNoZTEL
MAkGA1UECBMCTlkxCzAJBgNVBAYTAlVTggITRTANBgkqhkiG9w0BAQUFAAOBgQA1
CBU2hMXEkZAIhGItIWau0FvhTHGGy7SZDFxw00e1JGjxkqs+CwWQDBWaLXcXHHr5
HD52GeJM1nw9r+S4XRbroavQfsvrrsQcv/h2ANOeBIVT+KFbr4AueYT5mVTSKaiG
8AxRAmXLH/Y8sTkg7B2KfrrZya0GUXSUrWiEvCwgzQ==
-----END CERTIFICATE-----
