Certificate:
    Data:
        Version: 3 (0x2)
        Serial Number: 4935 (0x1347)
        Signature Algorithm: sha1WithRSAEncryption
        Issuer: C=US, ST=NY, O=Apache, OU=NOT FOR PRODUCTION, CN=TheRA
        Validity
            Not Before: Jun 22 15:39:43 2009 GMT
            Not After : Jun 17 15:39:43 2029 GMT
        Subject: C=US, ST=NY, O=Apache, OU=NOT FOR PRODUCTION, CN=Cherry
        Subject Public Key Info:
            Public Key Algorithm: dsaEncryption
            DSA Public Key:
                pub: 
                    0f:4f:da:8a:e1:d6:4e:29:17:4f:11:73:49:a9:ee:
                    71:48:86:e2:a2:d6:bd:98:1a:53:3a:d7:88:3e:b0:
                    16:8e:94:7b:69:9a:d5:47:57:c0:af:eb:28:90:01:
                    b7:29:b7:a3:ca:bb:24:49:76:16:a8:5e:61:58:aa:
                    e7:c0:8e:6c:54:b4:c0:e7:6c:a2:68:5a:47:1e:14:
                    f6:73:ad:93:2e:4e:74:50:89:f1:35:be:ad:73:2b:
                    e2:0e:de:63:d3:98:e8:7d:78:c6:c6:b3:b7:74:bf:
                    83:16:b4:8b:e4:9d:11:2b:1f:59:19:67:d2:a6:14:
                    15:40:a7:03:3a:33:d6:ee
                P:   
                    00:fd:7f:53:81:1d:75:12:29:52:df:4a:9c:2e:ec:
                    e4:e7:f6:11:b7:52:3c:ef:44:00:c3:1e:3f:80:b6:
                    51:26:69:45:5d:40:22:51:fb:59:3d:8d:58:fa:bf:
                    c5:f5:ba:30:f6:cb:9b:55:6c:d7:81:3b:80:1d:34:
                    6f:f2:66:60:b7:6b:99:50:a5:a4:9f:9f:e8:04:7b:
                    10:22:c2:4f:bb:a9:d7:fe:b7:c6:1b:f8:3b:57:e7:
                    c6:a8:a6:15:0f:04:fb:83:f6:d3:c5:1e:c3:02:35:
                    54:13:5a:16:91:32:f6:75:f3:ae:2b:61:d7:2a:ef:
                    f2:22:03:19:9d:d1:48:01:c7
                Q:   
                    00:97:60:50:8f:15:23:0b:cc:b2:92:b9:82:a2:eb:
                    84:0b:f0:58:1c:f5
                G:   
                    00:f7:e1:a0:85:d6:9b:3d:de:cb:bc:ab:5c:36:b8:
                    57:b9:79:94:af:bb:fa:3a:ea:82:f9:57:4c:0b:3d:
                    07:82:67:51:59:57:8e:ba:d4:59:4f:e6:71:07:10:
                    81:80:b4:49:16:71:23:e8:4c:28:16:13:b7:cf:09:
                    32:8c:c8:a6:e1:3c:16:7a:8b:54:7c:8d:28:e0:a3:
                    ae:1e:2b:b3:a6:75:91:6e:a3:7f:0b:fa:21:35:62:
                    f1:fb:62:7a:01:24:3b:cc:a4:f1:be:a8:51:90:89:
                    a8:83:df:e1:5a:e5:9f:06:92:8b:66:5e:80:7b:55:
                    25:64:01:4c:3b:fe:cf:49:2a
        X509v3 extensions:
            X509v3 Basic Constraints: 
                CA:FALSE
            Netscape Comment: 
                OpenSSL Generated Certificate
            X509v3 Subject Key Identifier: 
                A2:E6:7A:64:AD:53:B0:BF:79:3F:C6:0F:0C:33:77:BE:BD:8C:53:30
            X509v3 Authority Key Identifier: 
                DirName:/CN=TheCA/OU=NOT FOR PRODUCTION/O=Apache/ST=NY/C=US
                serial:13:45

    Signature Algorithm: sha1WithRSAEncryption
        bc:15:c0:2e:7e:21:cf:e3:86:f1:64:5d:26:ea:09:bd:b7:67:
        e4:24:50:66:4e:f1:33:78:d9:85:07:d7:02:86:48:42:11:02:
        a8:42:9a:72:50:87:86:a4:80:33:06:34:22:0a:e0:2c:90:88:
        80:a4:ba:20:1d:d8:a6:f3:f3:98:c7:6d:98:9f:be:0d:18:b0:
        8a:0b:bb:72:21:c4:e5:04:46:35:d8:2e:da:bb:7f:ed:3e:6f:
        d7:da:fd:21:2b:0a:b4:2c:ea:bc:e1:7a:f4:da:05:87:06:42:
        f8:d3:fb:29:04:9f:ff:9b:d3:e8:61:94:89:7f:0c:1d:bc:a5:
        a4:9b
-----BEGIN CERTIFICATE-----
MIIECjCCA3OgAwIBAgICE0cwDQYJKoZIhvcNAQEFBQAwWDELMAkGA1UEBhMCVVMx
CzAJBgNVBAgTAk5ZMQ8wDQYDVQQKEwZBcGFjaGUxGzAZBgNVBAsTEk5PVCBGT1Ig
UFJPRFVDVElPTjEOMAwGA1UEAxMFVGhlUkEwHhcNMDkwNjIyMTUzOTQzWhcNMjkw
NjE3MTUzOTQzWjBZMQswCQYDVQQGEwJVUzELMAkGA1UECBMCTlkxDzANBgNVBAoT
BkFwYWNoZTEbMBkGA1UECxMSTk9UIEZPUiBQUk9EVUNUSU9OMQ8wDQYDVQQDEwZD
aGVycnkwggG3MIIBLAYHKoZIzjgEATCCAR8CgYEA/X9TgR11EilS30qcLuzk5/YR
t1I870QAwx4/gLZRJmlFXUAiUftZPY1Y+r/F9bow9subVWzXgTuAHTRv8mZgt2uZ
UKWkn5/oBHsQIsJPu6nX/rfGG/g7V+fGqKYVDwT7g/bTxR7DAjVUE1oWkTL2dfOu
K2HXKu/yIgMZndFIAccCFQCXYFCPFSMLzLKSuYKi64QL8Fgc9QKBgQD34aCF1ps9
3su8q1w2uFe5eZSvu/o66oL5V0wLPQeCZ1FZV4661FlP5nEHEIGAtEkWcSPoTCgW
E7fPCTKMyKbhPBZ6i1R8jSjgo64eK7OmdZFuo38L+iE1YvH7YnoBJDvMpPG+qFGQ
iaiD3+Fa5Z8GkotmXoB7VSVkAUw7/s9JKgOBhAACgYAPT9qK4dZOKRdPEXNJqe5x
SIbiota9mBpTOteIPrAWjpR7aZrVR1fAr+sokAG3KbejyrskSXYWqF5hWKrnwI5s
VLTA52yiaFpHHhT2c62TLk50UInxNb6tcyviDt5j05jofXjGxrO3dL+DFrSL5J0R
Kx9ZGWfSphQVQKcDOjPW7qOByDCBxTAJBgNVHRMEAjAAMCwGCWCGSAGG+EIBDQQf
Fh1PcGVuU1NMIEdlbmVyYXRlZCBDZXJ0aWZpY2F0ZTAdBgNVHQ4EFgQUouZ6ZK1T
sL95P8YPDDN3vr2MUzAwawYDVR0jBGQwYqFcpFowWDEOMAwGA1UEAxMFVGhlQ0Ex
GzAZBgNVBAsTEk5PVCBGT1IgUFJPRFVDVElPTjEPMA0GA1UEChMGQXBhY2hlMQsw
CQYDVQQIEwJOWTELMAkGA1UEBhMCVVOCAhNFMA0GCSqGSIb3DQEBBQUAA4GBALwV
wC5+Ic/jhvFkXSbqCb23Z+QkUGZO8TN42YUH1wKGSEIRAqhCmnJQh4akgDMGNCIK
4CyQiICkuiAd2Kbz85jHbZifvg0YsIoLu3IhxOUERjXYLtq7f+0+b9fa/SErCrQs
6rzhevTaBYcGQvjT+ykEn/+b0+hhlIl/DB28paSb
-----END CERTIFICATE-----
