Certificate:
    Data:
        Version: 3 (0x2)
        Serial Number: 4935 (0x1347)
        Signature Algorithm: md5WithRSAEncryption
        Issuer: C=US, ST=NY, O=Apache, OU=NOT FOR PRODUCTION, CN=TheRA
        Validity
            Not Before: May 26 01:59:26 2008 GMT
            Not After : May 25 01:59:26 2009 GMT
        Subject: C=US, ST=NY, O=Apache, OU=NOT FOR PRODUCTION, CN=Cherry
        Subject Public Key Info:
            Public Key Algorithm: dsaEncryption
            DSA Public Key:
                pub: 
                    00:e0:93:92:5c:53:2d:4e:9b:2c:1a:0e:49:34:62:
                    6b:12:17:19:0d:78:66:04:ce:63:eb:2f:52:29:f3:
                    ff:7a:73:fc:f7:5b:b1:78:16:f4:af:86:a2:f3:a5:
                    b8:e6:c7:33:7c:4f:4a:93:b0:88:b4:3f:8b:a7:d1:
                    2a:67:a5:cb:1f:ae:4e:a6:52:3e:b8:41:13:dc:27:
                    f3:ba:6f:cc:57:bd:4c:85:c6:c1:be:e8:84:64:52:
                    80:cf:1d:87:3c:79:4d:1f:45:a1:69:ea:72:9a:0d:
                    0c:08:49:67:f6:24:07:20:40:d2:2e:11:95:bc:4a:
                    31:8d:6a:e0:c0:c9:95:87:54
                P:   
                    00:fd:7f:53:81:1d:75:12:29:52:df:4a:9c:2e:ec:
                    e4:e7:f6:11:b7:52:3c:ef:44:00:c3:1e:3f:80:b6:
                    51:26:69:45:5d:40:22:51:fb:59:3d:8d:58:fa:bf:
                    c5:f5:ba:30:f6:cb:9b:55:6c:d7:81:3b:80:1d:34:
                    6f:f2:66:60:b7:6b:99:50:a5:a4:9f:9f:e8:04:7b:
                    10:22:c2:4f:bb:a9:d7:fe:b7:c6:1b:f8:3b:57:e7:
                    c6:a8:a6:15:0f:04:fb:83:f6:d3:c5:1e:c3:02:35:
                    54:13:5a:16:91:32:f6:75:f3:ae:2b:61:d7:2a:ef:
                    f2:22:03:19:9d:d1:48:01:c7
                Q:   
                    00:97:60:50:8f:15:23:0b:cc:b2:92:b9:82:a2:eb:
                    84:0b:f0:58:1c:f5
                G:   
                    00:f7:e1:a0:85:d6:9b:3d:de:cb:bc:ab:5c:36:b8:
                    57:b9:79:94:af:bb:fa:3a:ea:82:f9:57:4c:0b:3d:
                    07:82:67:51:59:57:8e:ba:d4:59:4f:e6:71:07:10:
                    81:80:b4:49:16:71:23:e8:4c:28:16:13:b7:cf:09:
                    32:8c:c8:a6:e1:3c:16:7a:8b:54:7c:8d:28:e0:a3:
                    ae:1e:2b:b3:a6:75:91:6e:a3:7f:0b:fa:21:35:62:
                    f1:fb:62:7a:01:24:3b:cc:a4:f1:be:a8:51:90:89:
                    a8:83:df:e1:5a:e5:9f:06:92:8b:66:5e:80:7b:55:
                    25:64:01:4c:3b:fe:cf:49:2a
        X509v3 extensions:
            X509v3 Basic Constraints: 
            CA:FALSE
            Netscape Comment: 
            OpenSSL Generated Certificate
            X509v3 Subject Key Identifier: 
            F3:42:73:0C:48:E8:8F:8B:74:2A:98:6B:33:83:C7:61:78:3E:E6:E4
            X509v3 Authority Key Identifier: 
            DirName:/CN=TheCA/OU=NOT FOR PRODUCTION/O=Apache/ST=NY/C=US
            serial:13:45

    Signature Algorithm: md5WithRSAEncryption
        43:1f:78:b9:7f:c0:18:92:6e:d5:ab:0a:34:1b:cf:f6:db:68:
        d8:ed:b4:f0:85:d0:28:73:82:36:58:df:79:84:e9:b3:5b:f6:
        07:25:65:e7:dd:78:de:83:7c:d9:6f:0a:e4:16:5c:3f:d9:b4:
        f2:5c:99:7f:ab:14:e4:3e:27:ae:9a:10:2d:3b:b5:b1:94:01:
        93:ae:b3:80:0d:b5:06:fb:68:d1:80:40:56:4c:eb:ea:bf:a4:
        46:53:ce:4a:94:bf:0c:9a:09:c9:df:1f:83:5c:4c:02:78:21:
        b2:a0:f8:0b:7b:0c:c1:19:21:9f:99:68:87:a0:18:9d:96:f7:
        d5:b9
-----BEGIN CERTIFICATE-----
MIIECzCCA3SgAwIBAgICE0cwDQYJKoZIhvcNAQEEBQAwWDELMAkGA1UEBhMCVVMx
CzAJBgNVBAgTAk5ZMQ8wDQYDVQQKEwZBcGFjaGUxGzAZBgNVBAsTEk5PVCBGT1Ig
UFJPRFVDVElPTjEOMAwGA1UEAxMFVGhlUkEwHhcNMDgwNTI2MDE1OTI2WhcNMDkw
NTI1MDE1OTI2WjBZMQswCQYDVQQGEwJVUzELMAkGA1UECBMCTlkxDzANBgNVBAoT
BkFwYWNoZTEbMBkGA1UECxMSTk9UIEZPUiBQUk9EVUNUSU9OMQ8wDQYDVQQDEwZD
aGVycnkwggG4MIIBLAYHKoZIzjgEATCCAR8CgYEA/X9TgR11EilS30qcLuzk5/YR
t1I870QAwx4/gLZRJmlFXUAiUftZPY1Y+r/F9bow9subVWzXgTuAHTRv8mZgt2uZ
UKWkn5/oBHsQIsJPu6nX/rfGG/g7V+fGqKYVDwT7g/bTxR7DAjVUE1oWkTL2dfOu
K2HXKu/yIgMZndFIAccCFQCXYFCPFSMLzLKSuYKi64QL8Fgc9QKBgQD34aCF1ps9
3su8q1w2uFe5eZSvu/o66oL5V0wLPQeCZ1FZV4661FlP5nEHEIGAtEkWcSPoTCgW
E7fPCTKMyKbhPBZ6i1R8jSjgo64eK7OmdZFuo38L+iE1YvH7YnoBJDvMpPG+qFGQ
iaiD3+Fa5Z8GkotmXoB7VSVkAUw7/s9JKgOBhQACgYEA4JOSXFMtTpssGg5JNGJr
EhcZDXhmBM5j6y9SKfP/enP891uxeBb0r4ai86W45sczfE9Kk7CItD+Lp9EqZ6XL
H65OplI+uEET3Cfzum/MV71MhcbBvuiEZFKAzx2HPHlNH0Whaepymg0MCEln9iQH
IEDSLhGVvEoxjWrgwMmVh1SjgcgwgcUwCQYDVR0TBAIwADAsBglghkgBhvhCAQ0E
HxYdT3BlblNTTCBHZW5lcmF0ZWQgQ2VydGlmaWNhdGUwHQYDVR0OBBYEFPNCcwxI
6I+LdCqYazODx2F4PubkMGsGA1UdIwRkMGKhXKRaMFgxDjAMBgNVBAMTBVRoZUNB
MRswGQYDVQQLExJOT1QgRk9SIFBST0RVQ1RJT04xDzANBgNVBAoTBkFwYWNoZTEL
MAkGA1UECBMCTlkxCzAJBgNVBAYTAlVTggITRTANBgkqhkiG9w0BAQQFAAOBgQBD
H3i5f8AYkm7Vqwo0G8/222jY7bTwhdAoc4I2WN95hOmzW/YHJWXn3Xjeg3zZbwrk
Flw/2bTyXJl/qxTkPieumhAtO7WxlAGTrrOADbUG+2jRgEBWTOvqv6RGU85KlL8M
mgnJ3x+DXEwCeCGyoPgLewzBGSGfmWiHoBidlvfVuQ==
-----END CERTIFICATE-----
